; ModuleID = '49/1109.c'
source_filename = "49/1109.c"
target datalayout = "e-m:e-p270:32:32-p271:32:32-p272:64:64-i64:64-f80:128-n8:16:32:64-S128"
target triple = "x86_64-pc-linux-gnu"

@.str = private unnamed_addr constant [3 x i8] c"%s\00", align 1
@.str.1 = private unnamed_addr constant [3 x i8] c"%c\00", align 1
@.str.2 = private unnamed_addr constant [2 x i8] c"\0A\00", align 1

; Function Attrs: noinline nounwind uwtable
define dso_local i32 @main() #0 {
  %1 = alloca i32, align 4
  %2 = alloca i32, align 4
  %3 = alloca i32, align 4
  %4 = alloca i32, align 4
  %5 = alloca i32, align 4
  %6 = alloca i32, align 4
  %7 = alloca i32, align 4
  %8 = alloca [600 x i8], align 16
  store i32 0, i32* %1, align 4
  %9 = getelementptr inbounds [600 x i8], [600 x i8]* %8, i64 0, i64 0
  %10 = call i32 (i8*, ...) @__isoc99_scanf(i8* getelementptr inbounds ([3 x i8], [3 x i8]* @.str, i64 0, i64 0), i8* %9)
  %11 = getelementptr inbounds [600 x i8], [600 x i8]* %8, i64 0, i64 0
  %12 = call i64 @strlen(i8* %11) #3
  %13 = trunc i64 %12 to i32
  store i32 %13, i32* %6, align 4
  store i32 1, i32* %5, align 4
  br label %14

14:                                               ; preds = %167, %0
  %15 = load i32, i32* %5, align 4
  %16 = load i32, i32* %6, align 4
  %17 = icmp sle i32 %15, %16
  br i1 %17, label %18, label %170

18:                                               ; preds = %14
  store i32 0, i32* %2, align 4
  br label %19

19:                                               ; preds = %163, %18
  %20 = load i32, i32* %2, align 4
  %21 = load i32, i32* %5, align 4
  %22 = add nsw i32 %20, %21
  %23 = load i32, i32* %6, align 4
  %24 = sub nsw i32 %23, 1
  %25 = icmp sle i32 %22, %24
  br i1 %25, label %26, label %166

26:                                               ; preds = %19
  %27 = load i32, i32* %2, align 4
  %28 = sext i32 %27 to i64
  %29 = getelementptr inbounds [600 x i8], [600 x i8]* %8, i64 0, i64 %28
  %30 = load i8, i8* %29, align 1
  %31 = sext i8 %30 to i32
  %32 = load i32, i32* %2, align 4
  %33 = load i32, i32* %5, align 4
  %34 = add nsw i32 %32, %33
  %35 = sext i32 %34 to i64
  %36 = getelementptr inbounds [600 x i8], [600 x i8]* %8, i64 0, i64 %35
  %37 = load i8, i8* %36, align 1
  %38 = sext i8 %37 to i32
  %39 = icmp eq i32 %31, %38
  br i1 %39, label %40, label %161

40:                                               ; preds = %26
  store i32 0, i32* %7, align 4
  %41 = load i32, i32* %5, align 4
  %42 = srem i32 %41, 2
  %43 = icmp eq i32 %42, 1
  br i1 %43, label %44, label %102

44:                                               ; preds = %40
  store i32 0, i32* %4, align 4
  br label %45

45:                                               ; preds = %72, %44
  %46 = load i32, i32* %4, align 4
  %47 = load i32, i32* %5, align 4
  %48 = sdiv i32 %47, 2
  %49 = icmp sle i32 %46, %48
  br i1 %49, label %50, label %75

50:                                               ; preds = %45
  %51 = load i32, i32* %2, align 4
  %52 = load i32, i32* %4, align 4
  %53 = add nsw i32 %51, %52
  %54 = sext i32 %53 to i64
  %55 = getelementptr inbounds [600 x i8], [600 x i8]* %8, i64 0, i64 %54
  %56 = load i8, i8* %55, align 1
  %57 = sext i8 %56 to i32
  %58 = load i32, i32* %2, align 4
  %59 = load i32, i32* %5, align 4
  %60 = add nsw i32 %58, %59
  %61 = load i32, i32* %4, align 4
  %62 = sub nsw i32 %60, %61
  %63 = sext i32 %62 to i64
  %64 = getelementptr inbounds [600 x i8], [600 x i8]* %8, i64 0, i64 %63
  %65 = load i8, i8* %64, align 1
  %66 = sext i8 %65 to i32
  %67 = icmp eq i32 %57, %66
  br i1 %67, label %68, label %71

68:                                               ; preds = %50
  %69 = load i32, i32* %7, align 4
  %70 = add nsw i32 %69, 1
  store i32 %70, i32* %7, align 4
  br label %71

71:                                               ; preds = %68, %50
  br label %72

72:                                               ; preds = %71
  %73 = load i32, i32* %4, align 4
  %74 = add nsw i32 %73, 1
  store i32 %74, i32* %4, align 4
  br label %45

75:                                               ; preds = %45
  %76 = load i32, i32* %7, align 4
  %77 = load i32, i32* %5, align 4
  %78 = add nsw i32 %77, 1
  %79 = sdiv i32 %78, 2
  %80 = icmp eq i32 %76, %79
  br i1 %80, label %81, label %101

81:                                               ; preds = %75
  %82 = load i32, i32* %2, align 4
  store i32 %82, i32* %4, align 4
  br label %83

83:                                               ; preds = %96, %81
  %84 = load i32, i32* %4, align 4
  %85 = load i32, i32* %2, align 4
  %86 = load i32, i32* %5, align 4
  %87 = add nsw i32 %85, %86
  %88 = icmp sle i32 %84, %87
  br i1 %88, label %89, label %99

89:                                               ; preds = %83
  %90 = load i32, i32* %4, align 4
  %91 = sext i32 %90 to i64
  %92 = getelementptr inbounds [600 x i8], [600 x i8]* %8, i64 0, i64 %91
  %93 = load i8, i8* %92, align 1
  %94 = sext i8 %93 to i32
  %95 = call i32 (i8*, ...) @printf(i8* getelementptr inbounds ([3 x i8], [3 x i8]* @.str.1, i64 0, i64 0), i32 %94)
  br label %96

96:                                               ; preds = %89
  %97 = load i32, i32* %4, align 4
  %98 = add nsw i32 %97, 1
  store i32 %98, i32* %4, align 4
  br label %83

99:                                               ; preds = %83
  %100 = call i32 (i8*, ...) @printf(i8* getelementptr inbounds ([2 x i8], [2 x i8]* @.str.2, i64 0, i64 0))
  br label %101

101:                                              ; preds = %99, %75
  br label %160

102:                                              ; preds = %40
  store i32 0, i32* %4, align 4
  br label %103

103:                                              ; preds = %131, %102
  %104 = load i32, i32* %4, align 4
  %105 = load i32, i32* %5, align 4
  %106 = sdiv i32 %105, 2
  %107 = sub nsw i32 %106, 1
  %108 = icmp sle i32 %104, %107
  br i1 %108, label %109, label %134

109:                                              ; preds = %103
  %110 = load i32, i32* %2, align 4
  %111 = load i32, i32* %4, align 4
  %112 = add nsw i32 %110, %111
  %113 = sext i32 %112 to i64
  %114 = getelementptr inbounds [600 x i8], [600 x i8]* %8, i64 0, i64 %113
  %115 = load i8, i8* %114, align 1
  %116 = sext i8 %115 to i32
  %117 = load i32, i32* %2, align 4
  %118 = load i32, i32* %5, align 4
  %119 = add nsw i32 %117, %118
  %120 = load i32, i32* %4, align 4
  %121 = sub nsw i32 %119, %120
  %122 = sext i32 %121 to i64
  %123 = getelementptr inbounds [600 x i8], [600 x i8]* %8, i64 0, i64 %122
  %124 = load i8, i8* %123, align 1
  %125 = sext i8 %124 to i32
  %126 = icmp eq i32 %116, %125
  br i1 %126, label %127, label %130

127:                                              ; preds = %109
  %128 = load i32, i32* %7, align 4
  %129 = add nsw i32 %128, 1
  store i32 %129, i32* %7, align 4
  br label %130

130:                                              ; preds = %127, %109
  br label %131

131:                                              ; preds = %130
  %132 = load i32, i32* %4, align 4
  %133 = add nsw i32 %132, 1
  store i32 %133, i32* %4, align 4
  br label %103

134:                                              ; preds = %103
  %135 = load i32, i32* %7, align 4
  %136 = load i32, i32* %5, align 4
  %137 = sdiv i32 %136, 2
  %138 = icmp eq i32 %135, %137
  br i1 %138, label %139, label %159

139:                                              ; preds = %134
  %140 = load i32, i32* %2, align 4
  store i32 %140, i32* %4, align 4
  br label %141

141:                                              ; preds = %154, %139
  %142 = load i32, i32* %4, align 4
  %143 = load i32, i32* %2, align 4
  %144 = load i32, i32* %5, align 4
  %145 = add nsw i32 %143, %144
  %146 = icmp sle i32 %142, %145
  br i1 %146, label %147, label %157

147:                                              ; preds = %141
  %148 = load i32, i32* %4, align 4
  %149 = sext i32 %148 to i64
  %150 = getelementptr inbounds [600 x i8], [600 x i8]* %8, i64 0, i64 %149
  %151 = load i8, i8* %150, align 1
  %152 = sext i8 %151 to i32
  %153 = call i32 (i8*, ...) @printf(i8* getelementptr inbounds ([3 x i8], [3 x i8]* @.str.1, i64 0, i64 0), i32 %152)
  br label %154

154:                                              ; preds = %147
  %155 = load i32, i32* %4, align 4
  %156 = add nsw i32 %155, 1
  store i32 %156, i32* %4, align 4
  br label %141

157:                                              ; preds = %141
  %158 = call i32 (i8*, ...) @printf(i8* getelementptr inbounds ([2 x i8], [2 x i8]* @.str.2, i64 0, i64 0))
  br label %159

159:                                              ; preds = %157, %134
  br label %160

160:                                              ; preds = %159, %101
  br label %162

161:                                              ; preds = %26
  br label %163

162:                                              ; preds = %160
  br label %163

163:                                              ; preds = %162, %161
  %164 = load i32, i32* %2, align 4
  %165 = add nsw i32 %164, 1
  store i32 %165, i32* %2, align 4
  br label %19

166:                                              ; preds = %19
  br label %167

167:                                              ; preds = %166
  %168 = load i32, i32* %5, align 4
  %169 = add nsw i32 %168, 1
  store i32 %169, i32* %5, align 4
  br label %14

170:                                              ; preds = %14
  ret i32 0
}

declare dso_local i32 @__isoc99_scanf(i8*, ...) #1

; Function Attrs: nounwind readonly
declare dso_local i64 @strlen(i8*) #2

declare dso_local i32 @printf(i8*, ...) #1


!llvm.module.flags = !{!0}
!llvm.ident = !{!1}

!0 = !{i32 1, !"wchar_size", i32 4}
!1 = !{!"clang version 10.0.0-4ubuntu1 "}
